target datalayout = "e-m:e-p270:32:32-p271:32:32-p272:64:64-i64:64-i128:128-f80:128-n8:16:32:64-S128"
target triple = "x86_64-pc-linux-gnu"

@PyExc_OverflowError = external global ptr, align 8
@.str.59 = private unnamed_addr constant [17 x i8] c"math range error\00", align 1
@PyExc_ValueError = external global ptr, align 8
@.str.60 = private unnamed_addr constant [18 x i8] c"math domain error\00", align 1

; Function Attrs: nounwind uwtable
define internal i32 @is_error(double noundef %0, i32 noundef %1) #0 {
  %3 = alloca double, align 8
  %4 = alloca i32, align 4
  %5 = alloca i32, align 4
  store double %0, ptr %3, align 8, !tbaa !13
  store i32 %1, ptr %4, align 4, !tbaa !17
  call void @llvm.lifetime.start.p0(i64 4, ptr %5) #10
  store i32 1, ptr %5, align 4, !tbaa !17
  %6 = call ptr @__errno_location() #12
  %7 = load i32, ptr %6, align 4, !tbaa !17
  %8 = icmp eq i32 %7, 33
  br i1 %8, label %9, label %15

9:                                                ; preds = %2
  %10 = load i32, ptr %4, align 4, !tbaa !17
  %11 = icmp ne i32 %10, 0
  br i1 %11, label %12, label %14

12:                                               ; preds = %9
  %13 = load ptr, ptr @PyExc_ValueError, align 8, !tbaa !3
  call void @PyErr_SetString(ptr noundef %13, ptr noundef @.str.60)
  br label %14

14:                                               ; preds = %12, %9
  br label %31

15:                                               ; preds = %2
  %16 = call ptr @__errno_location() #12
  %17 = load i32, ptr %16, align 4, !tbaa !17
  %18 = icmp eq i32 %17, 34
  br i1 %18, label %19, label %27

19:                                               ; preds = %15
  %20 = load double, ptr %3, align 8, !tbaa !13
  %21 = call double @llvm.fabs.f64(double %20)
  %22 = fcmp olt double %21, 1.500000e+00
  br i1 %22, label %23, label %24

23:                                               ; preds = %19
  store i32 0, ptr %5, align 4, !tbaa !17
  br label %26

24:                                               ; preds = %19
  %25 = load ptr, ptr @PyExc_OverflowError, align 8, !tbaa !3
  call void @PyErr_SetString(ptr noundef %25, ptr noundef @.str.59)
  br label %26

26:                                               ; preds = %24, %23
  br label %30

27:                                               ; preds = %15
  %28 = load ptr, ptr @PyExc_ValueError, align 8, !tbaa !3
  %29 = call ptr @PyErr_SetFromErrno(ptr noundef %28)
  br label %30

30:                                               ; preds = %27, %26
  br label %31

31:                                               ; preds = %30, %14
  %32 = load i32, ptr %5, align 4, !tbaa !17
  call void @llvm.lifetime.end.p0(i64 4, ptr %5) #10
  ret i32 %32
}

; Function Attrs: nounwind uwtable
define internal ptr @math_2(ptr noundef %0, i64 noundef %1, ptr noundef %2, ptr noundef %3) #0 {
  %5 = alloca ptr, align 8
  %6 = alloca ptr, align 8
  %7 = alloca i64, align 8
  %8 = alloca ptr, align 8
  %9 = alloca ptr, align 8
  %10 = alloca double, align 8
  %11 = alloca double, align 8
  %12 = alloca double, align 8
  %13 = alloca i32, align 4
  store ptr %0, ptr %6, align 8, !tbaa !9
  store i64 %1, ptr %7, align 8, !tbaa !11
  store ptr %2, ptr %8, align 8, !tbaa !8
  store ptr %3, ptr %9, align 8, !tbaa !41
  call void @llvm.lifetime.start.p0(i64 8, ptr %10) #10
  call void @llvm.lifetime.start.p0(i64 8, ptr %11) #10
  call void @llvm.lifetime.start.p0(i64 8, ptr %12) #10
  %14 = load i64, ptr %7, align 8, !tbaa !11
  %15 = icmp sle i64 2, %14
  br i1 %15, label %16, label %19

16:                                               ; preds = %4
  %17 = load i64, ptr %7, align 8, !tbaa !11
  %18 = icmp sle i64 %17, 2
  br i1 %18, label %25, label %19

19:                                               ; preds = %16, %4
  %20 = load ptr, ptr %9, align 8, !tbaa !41
  %21 = load i64, ptr %7, align 8, !tbaa !11
  %22 = call i32 @_PyArg_CheckPositional(ptr noundef %20, i64 noundef %21, i64 noundef 2, i64 noundef 2)
  %23 = icmp ne i32 %22, 0
  br i1 %23, label %25, label %24

24:                                               ; preds = %19
  store ptr null, ptr %5, align 8
  store i32 1, ptr %13, align 4
  br label %99

25:                                               ; preds = %19, %16
  %26 = load ptr, ptr %6, align 8, !tbaa !9
  %27 = getelementptr ptr, ptr %26, i64 0
  %28 = load ptr, ptr %27, align 8, !tbaa !3
  %29 = call double @PyFloat_AsDouble(ptr noundef %28)
  store double %29, ptr %10, align 8, !tbaa !13
  %30 = load double, ptr %10, align 8, !tbaa !13
  %31 = fcmp oeq double %30, -1.000000e+00
  br i1 %31, label %32, label %36

32:                                               ; preds = %25
  %33 = call ptr @PyErr_Occurred()
  %34 = icmp ne ptr %33, null
  br i1 %34, label %35, label %36

35:                                               ; preds = %32
  store ptr null, ptr %5, align 8
  store i32 1, ptr %13, align 4
  br label %99

36:                                               ; preds = %32, %25
  %37 = load ptr, ptr %6, align 8, !tbaa !9
  %38 = getelementptr ptr, ptr %37, i64 1
  %39 = load ptr, ptr %38, align 8, !tbaa !3
  %40 = call double @PyFloat_AsDouble(ptr noundef %39)
  store double %40, ptr %11, align 8, !tbaa !13
  %41 = load double, ptr %11, align 8, !tbaa !13
  %42 = fcmp oeq double %41, -1.000000e+00
  br i1 %42, label %43, label %47

43:                                               ; preds = %36
  %44 = call ptr @PyErr_Occurred()
  %45 = icmp ne ptr %44, null
  br i1 %45, label %46, label %47

46:                                               ; preds = %43
  store ptr null, ptr %5, align 8
  store i32 1, ptr %13, align 4
  br label %99

47:                                               ; preds = %43, %36
  %48 = call ptr @__errno_location() #12
  store i32 0, ptr %48, align 4, !tbaa !17
  %49 = load ptr, ptr %8, align 8, !tbaa !8
  %50 = load double, ptr %10, align 8, !tbaa !13
  %51 = load double, ptr %11, align 8, !tbaa !13
  %52 = call double %49(double noundef %50, double noundef %51)
  store double %52, ptr %12, align 8, !tbaa !13
  %53 = load double, ptr %12, align 8, !tbaa !13
  %54 = call i1 @llvm.is.fpclass.f64(double %53, i32 3)
  br i1 %54, label %55, label %66

55:                                               ; preds = %47
  %56 = load double, ptr %10, align 8, !tbaa !13
  %57 = call i1 @llvm.is.fpclass.f64(double %56, i32 3)
  br i1 %57, label %63, label %58

58:                                               ; preds = %55
  %59 = load double, ptr %11, align 8, !tbaa !13
  %60 = call i1 @llvm.is.fpclass.f64(double %59, i32 3)
  br i1 %60, label %63, label %61

61:                                               ; preds = %58
  %62 = call ptr @__errno_location() #12
  store i32 33, ptr %62, align 4, !tbaa !17
  br label %65

63:                                               ; preds = %58, %55
  %64 = call ptr @__errno_location() #12
  store i32 0, ptr %64, align 4, !tbaa !17
  br label %65

65:                                               ; preds = %63, %61
  br label %87

66:                                               ; preds = %47
  %67 = load double, ptr %12, align 8, !tbaa !13
  %68 = call double @llvm.fabs.f64(double %67) #11
  %69 = fcmp oeq double %68, 0x7FF0000000000000
  %70 = bitcast double %67 to i64
  %71 = icmp slt i64 %70, 0
  %72 = select i1 %71, i32 -1, i32 1
  %73 = select i1 %69, i32 %72, i32 0
  %74 = icmp ne i32 %73, 0
  br i1 %74, label %75, label %86

75:                                               ; preds = %66
  %76 = load double, ptr %10, align 8, !tbaa !13
  %77 = call i1 @llvm.is.fpclass.f64(double %76, i32 504)
  br i1 %77, label %78, label %83

78:                                               ; preds = %75
  %79 = load double, ptr %11, align 8, !tbaa !13
  %80 = call i1 @llvm.is.fpclass.f64(double %79, i32 504)
  br i1 %80, label %81, label %83

81:                                               ; preds = %78
  %82 = call ptr @__errno_location() #12
  store i32 34, ptr %82, align 4, !tbaa !17
  br label %85

83:                                               ; preds = %78, %75
  %84 = call ptr @__errno_location() #12
  store i32 0, ptr %84, align 4, !tbaa !17
  br label %85

85:                                               ; preds = %83, %81
  br label %86

86:                                               ; preds = %85, %66
  br label %87

87:                                               ; preds = %86, %65
  %88 = call ptr @__errno_location() #12
  %89 = load i32, ptr %88, align 4, !tbaa !17
  %90 = icmp ne i32 %89, 0
  br i1 %90, label %91, label %96

91:                                               ; preds = %87
  %92 = load double, ptr %12, align 8, !tbaa !13
  %93 = call i32 @is_error(double noundef %92, i32 noundef 1)
  %94 = icmp ne i32 %93, 0
  br i1 %94, label %95, label %96

95:                                               ; preds = %91
  store ptr null, ptr %5, align 8
  store i32 1, ptr %13, align 4
  br label %99

96:                                               ; preds = %91, %87
  %97 = load double, ptr %12, align 8, !tbaa !13
  %98 = call ptr @PyFloat_FromDouble(double noundef %97)
  store ptr %98, ptr %5, align 8
  store i32 1, ptr %13, align 4
  br label %99

99:                                               ; preds = %96, %95, %46, %35, %24
  call void @llvm.lifetime.end.p0(i64 8, ptr %12) #10
  call void @llvm.lifetime.end.p0(i64 8, ptr %11) #10
  call void @llvm.lifetime.end.p0(i64 8, ptr %10) #10
  %100 = load ptr, ptr %5, align 8
  ret ptr %100
}