; Function Attrs: nounwind uwtable
define internal fastcc ptr @math_2(ptr noundef readonly captures(none) %0, i64 noundef %1, ptr noundef readonly captures(none) %2, ptr noundef %3) unnamed_addr #0 {
  %or.cond = icmp eq i64 %1, 2
  br i1 %or.cond, label %7, label %5

5:                                                ; preds = %4
  %6 = tail call i32 @_PyArg_CheckPositional(ptr noundef %3, i64 noundef %1, i64 noundef 2, i64 noundef 2) #16
  %.not = icmp eq i32 %6, 0
  br i1 %.not, label %is_error.exit.thread, label %7

7:                                                ; preds = %4, %5
  %8 = load ptr, ptr %0, align 8, !tbaa !12
  %9 = tail call double @PyFloat_AsDouble(ptr noundef %8) #16
  %10 = fcmp oeq double %9, -1.000000e+00
  br i1 %10, label %11, label %13

11:                                               ; preds = %7
  %12 = tail call ptr @PyErr_Occurred() #16
  %.not20 = icmp eq ptr %12, null
  br i1 %.not20, label %13, label %is_error.exit.thread

13:                                               ; preds = %11, %7
  %14 = getelementptr i8, ptr %0, i64 8
  %15 = load ptr, ptr %14, align 8, !tbaa !12
  %16 = tail call double @PyFloat_AsDouble(ptr noundef %15) #16
  %17 = fcmp oeq double %16, -1.000000e+00
  br i1 %17, label %18, label %20

18:                                               ; preds = %13
  %19 = tail call ptr @PyErr_Occurred() #16
  %.not21 = icmp eq ptr %19, null
  br i1 %.not21, label %20, label %is_error.exit.thread

20:                                               ; preds = %18, %13
  %21 = tail call ptr @__errno_location() #17
  store i32 0, ptr %21, align 4, !tbaa !14
  %22 = tail call double %2(double noundef %9, double noundef %16) #16, !callees !60
  %23 = fcmp uno double %22, 0.000000e+00
  br i1 %23, label %24, label %25

24:                                               ; preds = %20
  %or.cond24 = fcmp uno double %9, %16
  br i1 %or.cond24, label %is_error.exit.sink.split, label %.thread29.thread

.thread29.thread:                                 ; preds = %24
  store i32 33, ptr %21, align 4, !tbaa !14
  br label %34

25:                                               ; preds = %20
  %26 = tail call double @llvm.fabs.f64(double %22)
  %27 = fcmp oeq double %26, 0x7FF0000000000000
  br i1 %27, label %28, label %33

28:                                               ; preds = %25
  %29 = tail call double @llvm.fabs.f64(double %9)
  %30 = fcmp ueq double %29, 0x7FF0000000000000
  %31 = tail call double @llvm.fabs.f64(double %16)
  %32 = fcmp ueq double %31, 0x7FF0000000000000
  %or.cond26 = or i1 %30, %32
  br i1 %or.cond26, label %is_error.exit.sink.split, label %.thread29.thread33

.thread29.thread33:                               ; preds = %28
  store i32 34, ptr %21, align 4, !tbaa !14
  br label %36

33:                                               ; preds = %25
  %.pr = load i32, ptr %21, align 4, !tbaa !14
  switch i32 %.pr, label %40 [
    i32 0, label %is_error.exit
    i32 33, label %34
    i32 34, label %36
  ]

34:                                               ; preds = %33, %.thread29.thread
  %35 = load ptr, ptr @PyExc_ValueError, align 8, !tbaa !12
  tail call void @PyErr_SetString(ptr noundef %35, ptr noundef nonnull @.str.60) #16
  br label %is_error.exit.thread

36:                                               ; preds = %33, %.thread29.thread33
  %37 = fcmp olt double %26, 1.500000e+00
  br i1 %37, label %is_error.exit, label %38

38:                                               ; preds = %36
  %39 = load ptr, ptr @PyExc_OverflowError, align 8, !tbaa !12
  tail call void @PyErr_SetString(ptr noundef %39, ptr noundef nonnull @.str.59) #16
  br label %is_error.exit.thread

40:                                               ; preds = %33
  %41 = load ptr, ptr @PyExc_ValueError, align 8, !tbaa !12
  %42 = tail call ptr @PyErr_SetFromErrno(ptr noundef %41) #16
  br label %is_error.exit.thread

is_error.exit.sink.split:                         ; preds = %28, %24
  store i32 0, ptr %21, align 4, !tbaa !14
  br label %is_error.exit

is_error.exit:                                    ; preds = %is_error.exit.sink.split, %33, %36
  %43 = tail call ptr @PyFloat_FromDouble(double noundef %22) #16
  br label %is_error.exit.thread

is_error.exit.thread:                             ; preds = %40, %38, %34, %18, %11, %5, %is_error.exit
  %.0 = phi ptr [ %43, %is_error.exit ], [ null, %5 ], [ null, %11 ], [ null, %18 ], [ null, %34 ], [ null, %38 ], [ null, %40 ]
  ret ptr %.0
}